; Function Attrs: mustprogress nounwind uwtable
define dso_local { ptr, i64 } @_ZN4node6crypto7TLSWrap13OnStreamAllocEm(ptr nocapture noundef nonnull readonly align 8 dereferenceable(457) %this, i64 noundef %suggested_size) unnamed_addr #3 align 2 {
entry:
  %size = alloca i64, align 8
  %ssl_ = getelementptr inbounds i8, ptr %this, i64 168
  %0 = load ptr, ptr %ssl_, align 8
  %cmp.i.i.not = icmp eq ptr %0, null
  br i1 %cmp.i.i.not, label %do.body4, label %do.end5

do.body4:                                         ; preds = %entry
  tail call void @_ZN4node6AssertERKNS_13AssertionInfoE(ptr noundef nonnull align 8 dereferenceable(24) @_ZZN4node6crypto7TLSWrap13OnStreamAllocEmE4args) #23
  tail call void @abort() #24
  unreachable

do.end5:                                          ; preds = %entry
  store i64 %suggested_size, ptr %size, align 8
  %enc_in_ = getelementptr inbounds i8, ptr %this, i64 304
  %1 = load ptr, ptr %enc_in_, align 8
  %call6 = tail call noundef ptr @_ZN4node6crypto7NodeBIO7FromBIOEP6bio_st(ptr noundef %1) #23
  %call7 = call noundef ptr @_ZN4node6crypto7NodeBIO12PeekWritableEPm(ptr noundef nonnull align 8 dereferenceable(64) %call6, ptr noundef nonnull %size) #23
  %2 = load i64, ptr %size, align 8
  %conv = trunc i64 %2 to i32
  %call8 = call { ptr, i64 } @uv_buf_init(ptr noundef %call7, i32 noundef %conv) #23
  ret { ptr, i64 } %call8
}